; Function Attrs: mustprogress uwtable
define hidden void @_ZN3sat10simplifier17collect_subsumed0ERKNS_6clauseER10ptr_vectorIS1_E(ptr nocapture noundef nonnull align 8 dereferenceable(288) %this, ptr noundef nonnull align 4 dereferenceable(20) %c1, ptr noundef nonnull align 8 dereferenceable(8) %out) local_unnamed_addr #3 align 2 {
entry:
  %retval.sroa.0.0.copyload.i.b = load i1, ptr @_ZN3satL12null_literalE.0, align 4
  %retval.sroa.0.0.copyload.i = select i1 %retval.sroa.0.0.copyload.i.b, i32 -2, i32 0
  %m_size.i.i = getelementptr inbounds i8, ptr %c1, i64 4
  %0 = load i32, ptr %m_size.i.i, align 4
  %idx.ext.i.i = zext i32 %0 to i64
  %add.ptr.i.idx.i = shl nuw nsw i64 %idx.ext.i.i, 2
  %1 = getelementptr i8, ptr %c1, i64 %add.ptr.i.idx.i
  %add.ptr.i.ptr.i = getelementptr i8, ptr %1, i64 20
  %cmp.not9.i = icmp eq i32 %0, 0
  br i1 %cmp.not9.i, label %_ZNK3sat10simplifier16get_min_occ_var0ERKNS_6clauseE.exit, label %for.body.lr.ph.i

for.body.lr.ph.i:                                 ; preds = %entry
  %m_lits.i.ptr.i = getelementptr inbounds i8, ptr %c1, i64 20
  %m_use_list.i = getelementptr inbounds i8, ptr %this, i64 16
  %2 = load ptr, ptr %m_use_list.i, align 8
  br label %for.body.i

for.body.i:                                       ; preds = %for.body.i, %for.body.lr.ph.i
  %retval.sroa.0.012.i = phi i32 [ %retval.sroa.0.0.copyload.i, %for.body.lr.ph.i ], [ %spec.select6.i, %for.body.i ]
  %best.011.i = phi i32 [ -1, %for.body.lr.ph.i ], [ %spec.select.i, %for.body.i ]
  %__begin1.010.i = phi ptr [ %m_lits.i.ptr.i, %for.body.lr.ph.i ], [ %incdec.ptr.i, %for.body.i ]
  %l.sroa.0.0.copyload.i = load i32, ptr %__begin1.010.i, align 4
  %idxprom.i.i.i = zext i32 %l.sroa.0.0.copyload.i to i64
  %m_size.i8.i = getelementptr inbounds %"class.sat::clause_use_list", ptr %2, i64 %idxprom.i.i.i, i32 1
  %3 = load i32, ptr %m_size.i8.i, align 8
  %cmp5.i = icmp ult i32 %3, %best.011.i
  %spec.select.i = tail call i32 @llvm.umin.i32(i32 %3, i32 %best.011.i)
  %spec.select6.i = select i1 %cmp5.i, i32 %l.sroa.0.0.copyload.i, i32 %retval.sroa.0.012.i
  %incdec.ptr.i = getelementptr inbounds i8, ptr %__begin1.010.i, i64 4
  %cmp.not.i = icmp eq ptr %incdec.ptr.i, %add.ptr.i.ptr.i
  br i1 %cmp.not.i, label %_ZNK3sat10simplifier16get_min_occ_var0ERKNS_6clauseE.exit, label %for.body.i

_ZNK3sat10simplifier16get_min_occ_var0ERKNS_6clauseE.exit: ; preds = %for.body.i, %entry
  %retval.sroa.0.0.lcssa.i = phi i32 [ %retval.sroa.0.0.copyload.i, %entry ], [ %spec.select6.i, %for.body.i ]
  tail call void @_ZN3sat10simplifier22collect_subsumed0_coreERKNS_6clauseER10ptr_vectorIS1_ENS_7literalE(ptr noundef nonnull align 8 dereferenceable(288) %this, ptr noundef nonnull align 4 dereferenceable(20) %c1, ptr noundef nonnull align 8 dereferenceable(8) %out, i32 %retval.sroa.0.0.lcssa.i)
  ret void
}